target datalayout = "e-m:e-p270:32:32-p271:32:32-p272:64:64-i64:64-i128:128-f80:128-n8:16:32:64-S128"
target triple = "x86_64-pc-linux-gnu"

; Function Attrs: mustprogress uwtable
define dso_local noundef ptr @_ZN10cmMakefile22GetOrCreateSourceGroupERKSt6vectorINSt7__cxx1112basic_stringIcSt11char_traitsIcESaIcEEESaIS6_EE(ptr noundef nonnull align 8 dereferenceable(3520) %0, ptr noundef nonnull align 8 dereferenceable(24) %1) #5 align 2 {
  %3 = alloca ptr, align 8
  %4 = alloca ptr, align 8
  %5 = alloca ptr, align 8
  store ptr %0, ptr %3, align 8
  store ptr %1, ptr %4, align 8
  %6 = load ptr, ptr %3, align 8
  %7 = load ptr, ptr %4, align 8
  %8 = call noundef ptr @_ZNK10cmMakefile14GetSourceGroupERKSt6vectorINSt7__cxx1112basic_stringIcSt11char_traitsIcESaIcEEESaIS6_EE(ptr noundef nonnull align 8 dereferenceable(3520) %6, ptr noundef nonnull align 8 dereferenceable(24) %7)
  store ptr %8, ptr %5, align 8
  %9 = load ptr, ptr %5, align 8
  %10 = icmp eq ptr %9, null
  br i1 %10, label %11, label %15

11:                                               ; preds = %2
  %12 = load ptr, ptr %4, align 8
  call void @_ZN10cmMakefile14AddSourceGroupERKSt6vectorINSt7__cxx1112basic_stringIcSt11char_traitsIcESaIcEEESaIS6_EEPKc(ptr noundef nonnull align 8 dereferenceable(3520) %6, ptr noundef nonnull align 8 dereferenceable(24) %12, ptr noundef null)
  %13 = load ptr, ptr %4, align 8
  %14 = call noundef ptr @_ZNK10cmMakefile14GetSourceGroupERKSt6vectorINSt7__cxx1112basic_stringIcSt11char_traitsIcESaIcEEESaIS6_EE(ptr noundef nonnull align 8 dereferenceable(3520) %6, ptr noundef nonnull align 8 dereferenceable(24) %13)
  store ptr %14, ptr %5, align 8
  br label %15

15:                                               ; preds = %11, %2
  %16 = load ptr, ptr %5, align 8
  ret ptr %16
}