; Function Attrs: mustprogress uwtable
define dso_local noundef ptr @_ZN10cmMakefile22GetOrCreateSourceGroupERKSt6vectorINSt7__cxx1112basic_stringIcSt11char_traitsIcESaIcEEESaIS6_EE(ptr noundef nonnull align 8 dereferenceable(3520) %0, ptr nocapture noundef nonnull readonly align 8 dereferenceable(24) %1) local_unnamed_addr #4 align 2 {
  %3 = tail call noundef ptr @_ZNK10cmMakefile14GetSourceGroupERKSt6vectorINSt7__cxx1112basic_stringIcSt11char_traitsIcESaIcEEESaIS6_EE(ptr noundef nonnull align 8 dereferenceable(3520) %0, ptr noundef nonnull align 8 dereferenceable(24) %1)
  %4 = icmp eq ptr %3, null
  br i1 %4, label %5, label %7

5:                                                ; preds = %2
  tail call void @_ZN10cmMakefile14AddSourceGroupERKSt6vectorINSt7__cxx1112basic_stringIcSt11char_traitsIcESaIcEEESaIS6_EEPKc(ptr noundef nonnull align 8 dereferenceable(3520) %0, ptr noundef nonnull align 8 dereferenceable(24) %1, ptr noundef null)
  %6 = tail call noundef ptr @_ZNK10cmMakefile14GetSourceGroupERKSt6vectorINSt7__cxx1112basic_stringIcSt11char_traitsIcESaIcEEESaIS6_EE(ptr noundef nonnull align 8 dereferenceable(3520) %0, ptr noundef nonnull align 8 dereferenceable(24) %1)
  br label %7

7:                                                ; preds = %5, %2
  %.0 = phi ptr [ %6, %5 ], [ %3, %2 ]
  ret ptr %.0
}